ARM GAS  /var/folders/_f/88qcw_5n2jl40jjphvxyt7wh0000gn/T//ccko0cQI.s 			page 1


   1              		.cpu cortex-m4
   2              		.arch armv7e-m
   3              		.fpu softvfp
   4              		.eabi_attribute 20, 1
   5              		.eabi_attribute 21, 1
   6              		.eabi_attribute 23, 3
   7              		.eabi_attribute 24, 1
   8              		.eabi_attribute 25, 1
   9              		.eabi_attribute 26, 1
  10              		.eabi_attribute 30, 1
  11              		.eabi_attribute 34, 1
  12              		.eabi_attribute 18, 4
  13              		.file	"main.c"
  14              		.text
  15              	.Ltext0:
  16              		.cfi_sections	.debug_frame
  17              		.section	.text.main,"ax",%progbits
  18              		.align	1
  19              		.global	main
  20              		.syntax unified
  21              		.thumb
  22              		.thumb_func
  24              	main:
  25              	.LFB116:
  26              		.file 1 "main.c"
   1:main.c        **** #include "gd32f3x0.h"                   
   2:main.c        **** #include "gd32f3x0_gpio.h"              
   3:main.c        **** #include "gd32f3x0_rcu.h"               
   4:main.c        **** #include <stdint.h>
   5:main.c        **** 
   6:main.c        **** 
   7:main.c        **** int main(){
  27              		.loc 1 7 11 view -0
  28              		.cfi_startproc
  29              		@ args = 0, pretend = 0, frame = 0
  30              		@ frame_needed = 0, uses_anonymous_args = 0
  31 0000 08B5     		push	{r3, lr}
  32              	.LCFI0:
  33              		.cfi_def_cfa_offset 8
  34              		.cfi_offset 3, -8
  35              		.cfi_offset 14, -4
   8:main.c        **** 	rcu_periph_clock_enable(RCU_GPIOA);
  36              		.loc 1 8 2 view .LVU1
  37 0002 40F21150 		movw	r0, #1297
  38 0006 FFF7FEFF 		bl	rcu_periph_clock_enable
  39              	.LVL0:
   9:main.c        **** 	gpio_mode_set(GPIOA, GPIO_MODE_OUTPUT, GPIO_PUPD_NONE, GPIO_PIN_15);
  40              		.loc 1 9 2 view .LVU2
  41 000a 4FF40043 		mov	r3, #32768
  42 000e 0022     		movs	r2, #0
  43 0010 0121     		movs	r1, #1
  44 0012 4FF09040 		mov	r0, #1207959552
  45 0016 FFF7FEFF 		bl	gpio_mode_set
  46              	.LVL1:
  10:main.c        **** 	gpio_output_options_set(GPIOA, GPIO_OTYPE_PP, GPIO_OSPEED_50MHZ, GPIO_PIN_15);
  47              		.loc 1 10 2 view .LVU3
  48 001a 4FF40043 		mov	r3, #32768
ARM GAS  /var/folders/_f/88qcw_5n2jl40jjphvxyt7wh0000gn/T//ccko0cQI.s 			page 2


  49 001e 0322     		movs	r2, #3
  50 0020 0021     		movs	r1, #0
  51 0022 4FF09040 		mov	r0, #1207959552
  52 0026 FFF7FEFF 		bl	gpio_output_options_set
  53              	.LVL2:
  54 002a 0FE0     		b	.L6
  55              	.LVL3:
  56              	.L3:
  57              	.LBB2:
  11:main.c        **** 	while(1){
  12:main.c        **** 		gpio_bit_set(GPIOA, GPIO_PIN_15);
  13:main.c        **** 		for(uint32_t x = 0; x < 10000000; x++)
  14:main.c        **** 		;
  58              		.loc 1 14 3 discriminator 3 view .LVU4
  13:main.c        **** 		;
  59              		.loc 1 13 37 discriminator 3 view .LVU5
  13:main.c        **** 		;
  60              		.loc 1 13 38 is_stmt 0 discriminator 3 view .LVU6
  61 002c 0133     		adds	r3, r3, #1
  62              	.LVL4:
  63              	.L2:
  13:main.c        **** 		;
  64              		.loc 1 13 23 is_stmt 1 discriminator 1 view .LVU7
  13:main.c        **** 		;
  65              		.loc 1 13 3 is_stmt 0 discriminator 1 view .LVU8
  66 002e 0B4A     		ldr	r2, .L8
  67 0030 9342     		cmp	r3, r2
  68 0032 FBD3     		bcc	.L3
  69              	.LBE2:
  15:main.c        **** 		gpio_bit_reset(GPIOA, GPIO_PIN_15);
  70              		.loc 1 15 3 is_stmt 1 view .LVU9
  71 0034 4FF40041 		mov	r1, #32768
  72 0038 4FF09040 		mov	r0, #1207959552
  73 003c FFF7FEFF 		bl	gpio_bit_reset
  74              	.LVL5:
  16:main.c        **** 		for(uint32_t x = 0; x < 10000000; x++)
  75              		.loc 1 16 3 view .LVU10
  76              	.LBB3:
  77              		.loc 1 16 7 view .LVU11
  78              		.loc 1 16 16 is_stmt 0 view .LVU12
  79 0040 0023     		movs	r3, #0
  80              		.loc 1 16 3 view .LVU13
  81 0042 00E0     		b	.L4
  82              	.LVL6:
  83              	.L5:
  17:main.c        **** 		;
  84              		.loc 1 17 3 is_stmt 1 discriminator 3 view .LVU14
  16:main.c        **** 		for(uint32_t x = 0; x < 10000000; x++)
  85              		.loc 1 16 37 discriminator 3 view .LVU15
  16:main.c        **** 		for(uint32_t x = 0; x < 10000000; x++)
  86              		.loc 1 16 38 is_stmt 0 discriminator 3 view .LVU16
  87 0044 0133     		adds	r3, r3, #1
  88              	.LVL7:
  89              	.L4:
  16:main.c        **** 		for(uint32_t x = 0; x < 10000000; x++)
  90              		.loc 1 16 23 is_stmt 1 discriminator 1 view .LVU17
  16:main.c        **** 		for(uint32_t x = 0; x < 10000000; x++)
ARM GAS  /var/folders/_f/88qcw_5n2jl40jjphvxyt7wh0000gn/T//ccko0cQI.s 			page 3


  91              		.loc 1 16 3 is_stmt 0 discriminator 1 view .LVU18
  92 0046 054A     		ldr	r2, .L8
  93 0048 9342     		cmp	r3, r2
  94 004a FBD3     		bcc	.L5
  95              	.LVL8:
  96              	.L6:
  16:main.c        **** 		for(uint32_t x = 0; x < 10000000; x++)
  97              		.loc 1 16 3 discriminator 1 view .LVU19
  98              	.LBE3:
  11:main.c        **** 		gpio_bit_set(GPIOA, GPIO_PIN_15);
  99              		.loc 1 11 2 is_stmt 1 view .LVU20
  12:main.c        **** 		for(uint32_t x = 0; x < 10000000; x++)
 100              		.loc 1 12 3 view .LVU21
 101 004c 4FF40041 		mov	r1, #32768
 102 0050 4FF09040 		mov	r0, #1207959552
 103 0054 FFF7FEFF 		bl	gpio_bit_set
 104              	.LVL9:
  13:main.c        **** 		;
 105              		.loc 1 13 3 view .LVU22
 106              	.LBB4:
  13:main.c        **** 		;
 107              		.loc 1 13 7 view .LVU23
  13:main.c        **** 		;
 108              		.loc 1 13 16 is_stmt 0 view .LVU24
 109 0058 0023     		movs	r3, #0
  13:main.c        **** 		;
 110              		.loc 1 13 3 view .LVU25
 111 005a E8E7     		b	.L2
 112              	.L9:
 113              		.align	2
 114              	.L8:
 115 005c 80969800 		.word	10000000
 116              	.LBE4:
 117              		.cfi_endproc
 118              	.LFE116:
 120              		.text
 121              	.Letext0:
 122              		.file 2 "/Applications/ARM/arm-none-eabi/include/machine/_default_types.h"
 123              		.file 3 "/Applications/ARM/arm-none-eabi/include/sys/_stdint.h"
 124              		.file 4 "lib/GD32F3x0/Include/gd32f3x0_rcu.h"
 125              		.file 5 "lib/GD32F3x0/Include/gd32f3x0_gpio.h"
ARM GAS  /var/folders/_f/88qcw_5n2jl40jjphvxyt7wh0000gn/T//ccko0cQI.s 			page 4


DEFINED SYMBOLS
                            *ABS*:0000000000000000 main.c
/var/folders/_f/88qcw_5n2jl40jjphvxyt7wh0000gn/T//ccko0cQI.s:18     .text.main:0000000000000000 $t
/var/folders/_f/88qcw_5n2jl40jjphvxyt7wh0000gn/T//ccko0cQI.s:24     .text.main:0000000000000000 main
/var/folders/_f/88qcw_5n2jl40jjphvxyt7wh0000gn/T//ccko0cQI.s:115    .text.main:000000000000005c $d

UNDEFINED SYMBOLS
rcu_periph_clock_enable
gpio_mode_set
gpio_output_options_set
gpio_bit_reset
gpio_bit_set
